target datalayout = "e-m:e-p270:32:32-p271:32:32-p272:64:64-i64:64-i128:128-f80:128-n8:16:32:64-S128"
target triple = "x86_64-pc-linux-gnu"

%"class.std::__cxx11::basic_string" = type { %"struct.std::__cxx11::basic_string<char>::_Alloc_hider", i64, %union.anon }
%"struct.std::__cxx11::basic_string<char>::_Alloc_hider" = type { ptr }
%union.anon = type { i64, [8 x i8] }

@_ZN12_GLOBAL__N_111auto_prefixB5cxx11E = internal global %"class.std::__cxx11::basic_string" zeroinitializer, align 8
@_ZN12_GLOBAL__N_117auto_name_counterE = internal global i32 0, align 4
@_ZN12_GLOBAL__N_116auto_name_offsetE = internal global i32 0, align 4
@_ZN12_GLOBAL__N_116auto_name_digitsE = internal global i32 0, align 4
@.str.199 = private unnamed_addr constant [9 x i8] c"%s_%0*d_\00", align 1

; Function Attrs: mustprogress nounwind uwtable
define available_externally noundef ptr @_ZNKSt7__cxx1112basic_stringIcSt11char_traitsIcESaIcEE7_M_dataEv(ptr noundef nonnull align 8 dereferenceable(32) %0) #4 align 2 {
  %2 = alloca ptr, align 8
  store ptr %0, ptr %2, align 8, !tbaa !13
  %3 = load ptr, ptr %2, align 8
  %4 = getelementptr inbounds nuw %"class.std::__cxx11::basic_string", ptr %3, i32 0, i32 0
  %5 = getelementptr inbounds nuw %"struct.std::__cxx11::basic_string<char>::_Alloc_hider", ptr %4, i32 0, i32 0
  %6 = load ptr, ptr %5, align 8, !tbaa !345
  ret ptr %6
}

; Function Attrs: mustprogress nounwind uwtable
define available_externally noundef ptr @_ZNKSt7__cxx1112basic_stringIcSt11char_traitsIcESaIcEE5c_strEv(ptr noundef nonnull align 8 dereferenceable(32) %0) #4 align 2 {
  %2 = alloca ptr, align 8
  store ptr %0, ptr %2, align 8, !tbaa !13
  %3 = load ptr, ptr %2, align 8
  %4 = call noundef ptr @_ZNKSt7__cxx1112basic_stringIcSt11char_traitsIcESaIcEE7_M_dataEv(ptr noundef nonnull align 8 dereferenceable(32) %3)
  ret ptr %4
}

; Function Attrs: mustprogress uwtable
define internal void @_ZN12_GLOBAL__N_112next_auto_idB5cxx11Ev(ptr dead_on_unwind noalias writable sret(%"class.std::__cxx11::basic_string") align 8 %0) #6 {
  %2 = alloca ptr, align 8
  store ptr %0, ptr %2, align 8
  %3 = call noundef ptr @_ZNKSt7__cxx1112basic_stringIcSt11char_traitsIcESaIcEE5c_strEv(ptr noundef nonnull align 8 dereferenceable(32) @_ZN12_GLOBAL__N_111auto_prefixB5cxx11E) #3
  %4 = load i32, ptr @_ZN12_GLOBAL__N_116auto_name_digitsE, align 4, !tbaa !121
  %5 = load i32, ptr @_ZN12_GLOBAL__N_116auto_name_offsetE, align 4, !tbaa !121
  %6 = load i32, ptr @_ZN12_GLOBAL__N_117auto_name_counterE, align 4, !tbaa !121
  %7 = add nsw i32 %6, 1
  store i32 %7, ptr @_ZN12_GLOBAL__N_117auto_name_counterE, align 4, !tbaa !121
  %8 = add nsw i32 %5, %6
  call void (ptr, ptr, ...) @_ZN5Yosys7stringfB5cxx11EPKcz(ptr dead_on_unwind writable sret(%"class.std::__cxx11::basic_string") align 8 %0, ptr noundef @.str.199, ptr noundef %3, i32 noundef %4, i32 noundef %8)
  ret void
}