; Function Attrs: mustprogress uwtable
define internal fastcc void @_ZN12_GLOBAL__N_112next_auto_idB5cxx11Ev(ptr dead_on_unwind noalias nonnull writable align 8 %0) unnamed_addr #8 {
  %2 = load ptr, ptr @_ZN12_GLOBAL__N_111auto_prefixB5cxx11E, align 8, !tbaa !136
  %3 = load i32, ptr @_ZN12_GLOBAL__N_116auto_name_digitsE, align 4, !tbaa !23
  %4 = load i32, ptr @_ZN12_GLOBAL__N_116auto_name_offsetE, align 4, !tbaa !23
  %5 = load i32, ptr @_ZN12_GLOBAL__N_117auto_name_counterE, align 4, !tbaa !23
  %6 = add nsw i32 %5, 1
  store i32 %6, ptr @_ZN12_GLOBAL__N_117auto_name_counterE, align 4, !tbaa !23
  %7 = add nsw i32 %5, %4
  tail call void (ptr, ptr, ...) @_ZN5Yosys7stringfB5cxx11EPKcz(ptr dead_on_unwind nonnull writable sret(%"class.std::__cxx11::basic_string") align 8 %0, ptr noundef nonnull @.str.199, ptr noundef %2, i32 noundef %3, i32 noundef %7)
  ret void
}